target datalayout = "e-m:e-p270:32:32-p271:32:32-p272:64:64-i64:64-i128:128-f80:128-n8:16:32:64-S128"
target triple = "x86_64-pc-linux-gnu"

%struct.PJconsts = type { ptr, ptr, ptr, ptr, ptr, ptr, ptr, ptr, ptr, ptr, ptr, ptr, i32, ptr, ptr, ptr, ptr, ptr, ptr, ptr, ptr, double, double, double, double, double, double, double, double, double, double, double, double, double, double, double, double, double, double, double, double, double, double, i32, i32, i32, i32, i32, i32, i32, i32, i32, i32, i32, ptr, ptr, ptr, ptr, ptr, ptr, double, double, double, double, double, double, double, double, double, double, double, i32, [7 x double], i32, ptr, ptr, double, double, i32, [4 x i8], %"class.std::shared_ptr", i8, double, i8, %"class.std::__cxx11::basic_string", %"class.std::__cxx11::basic_string", %"class.std::__cxx11::basic_string", i8, %"class.std::vector", i32, %"class.std::vector.3", i32, i8, i8, i8, ptr }
%"class.std::shared_ptr" = type { %"class.std::__shared_ptr" }
%"class.std::__shared_ptr" = type { ptr, %"class.std::__shared_count" }
%"class.std::__shared_count" = type { ptr }
%"class.std::__cxx11::basic_string" = type { %"struct.std::__cxx11::basic_string<char>::_Alloc_hider", i64, %union.anon }
%"struct.std::__cxx11::basic_string<char>::_Alloc_hider" = type { ptr }
%union.anon = type { i64, [8 x i8] }
%"class.std::vector" = type { %"struct.std::_Vector_base" }
%"struct.std::_Vector_base" = type { %"struct.std::_Vector_base<osgeo::proj::operation::GridDescription, std::allocator<osgeo::proj::operation::GridDescription>>::_Vector_impl" }
%"struct.std::_Vector_base<osgeo::proj::operation::GridDescription, std::allocator<osgeo::proj::operation::GridDescription>>::_Vector_impl" = type { %"struct.std::_Vector_base<osgeo::proj::operation::GridDescription, std::allocator<osgeo::proj::operation::GridDescription>>::_Vector_impl_data" }
%"struct.std::_Vector_base<osgeo::proj::operation::GridDescription, std::allocator<osgeo::proj::operation::GridDescription>>::_Vector_impl_data" = type { ptr, ptr, ptr }
%"class.std::vector.3" = type { %"struct.std::_Vector_base.4" }
%"struct.std::_Vector_base.4" = type { %"struct.std::_Vector_base<PJCoordOperation, std::allocator<PJCoordOperation>>::_Vector_impl" }
%"struct.std::_Vector_base<PJCoordOperation, std::allocator<PJCoordOperation>>::_Vector_impl" = type { %"struct.std::_Vector_base<PJCoordOperation, std::allocator<PJCoordOperation>>::_Vector_impl_data" }
%"struct.std::_Vector_base<PJCoordOperation, std::allocator<PJCoordOperation>>::_Vector_impl_data" = type { ptr, ptr, ptr }
%struct.PJ_XYZ = type { double, double, double }
%"struct.(anonymous namespace)::pj_opaque" = type { double, double, double, double, double, double, double }

; Function Attrs: mustprogress nounwind uwtable
define internal void @_ZL15topocentric_invR8PJ_COORDP8PJconsts(ptr noundef nonnull align 8 dereferenceable(32) %0, ptr noundef %1) #6 {
  %3 = alloca ptr, align 8
  %4 = alloca ptr, align 8
  %5 = alloca ptr, align 8
  %6 = alloca double, align 8
  %7 = alloca double, align 8
  %8 = alloca double, align 8
  store ptr %0, ptr %3, align 8, !tbaa !71
  store ptr %1, ptr %4, align 8, !tbaa !3
  call void @llvm.lifetime.start.p0(i64 8, ptr %5) #8
  %9 = load ptr, ptr %4, align 8, !tbaa !3
  %10 = getelementptr inbounds nuw %struct.PJconsts, ptr %9, i32 0, i32 11
  %11 = load ptr, ptr %10, align 8, !tbaa !43
  store ptr %11, ptr %5, align 8, !tbaa !41
  call void @llvm.lifetime.start.p0(i64 8, ptr %6) #8
  %12 = load ptr, ptr %3, align 8, !tbaa !71
  %13 = getelementptr inbounds nuw %struct.PJ_XYZ, ptr %12, i32 0, i32 0
  %14 = load double, ptr %13, align 8, !tbaa !47
  store double %14, ptr %6, align 8, !tbaa !57
  call void @llvm.lifetime.start.p0(i64 8, ptr %7) #8
  %15 = load ptr, ptr %3, align 8, !tbaa !71
  %16 = getelementptr inbounds nuw %struct.PJ_XYZ, ptr %15, i32 0, i32 1
  %17 = load double, ptr %16, align 8, !tbaa !47
  store double %17, ptr %7, align 8, !tbaa !57
  call void @llvm.lifetime.start.p0(i64 8, ptr %8) #8
  %18 = load ptr, ptr %3, align 8, !tbaa !71
  %19 = getelementptr inbounds nuw %struct.PJ_XYZ, ptr %18, i32 0, i32 2
  %20 = load double, ptr %19, align 8, !tbaa !47
  store double %20, ptr %8, align 8, !tbaa !57
  %21 = load ptr, ptr %5, align 8, !tbaa !41
  %22 = getelementptr inbounds nuw %"struct.(anonymous namespace)::pj_opaque", ptr %21, i32 0, i32 0
  %23 = load double, ptr %22, align 8, !tbaa !48
  %24 = load double, ptr %6, align 8, !tbaa !57
  %25 = load ptr, ptr %5, align 8, !tbaa !41
  %26 = getelementptr inbounds nuw %"struct.(anonymous namespace)::pj_opaque", ptr %25, i32 0, i32 5
  %27 = load double, ptr %26, align 8, !tbaa !64
  %28 = fneg double %24
  %29 = call double @llvm.fmuladd.f64(double %28, double %27, double %23)
  %30 = load double, ptr %7, align 8, !tbaa !57
  %31 = load ptr, ptr %5, align 8, !tbaa !41
  %32 = getelementptr inbounds nuw %"struct.(anonymous namespace)::pj_opaque", ptr %31, i32 0, i32 3
  %33 = load double, ptr %32, align 8, !tbaa !61
  %34 = fmul double %30, %33
  %35 = load ptr, ptr %5, align 8, !tbaa !41
  %36 = getelementptr inbounds nuw %"struct.(anonymous namespace)::pj_opaque", ptr %35, i32 0, i32 6
  %37 = load double, ptr %36, align 8, !tbaa !65
  %38 = fneg double %34
  %39 = call double @llvm.fmuladd.f64(double %38, double %37, double %29)
  %40 = load double, ptr %8, align 8, !tbaa !57
  %41 = load ptr, ptr %5, align 8, !tbaa !41
  %42 = getelementptr inbounds nuw %"struct.(anonymous namespace)::pj_opaque", ptr %41, i32 0, i32 4
  %43 = load double, ptr %42, align 8, !tbaa !62
  %44 = fmul double %40, %43
  %45 = load ptr, ptr %5, align 8, !tbaa !41
  %46 = getelementptr inbounds nuw %"struct.(anonymous namespace)::pj_opaque", ptr %45, i32 0, i32 6
  %47 = load double, ptr %46, align 8, !tbaa !65
  %48 = call double @llvm.fmuladd.f64(double %44, double %47, double %39)
  %49 = load ptr, ptr %3, align 8, !tbaa !71
  %50 = getelementptr inbounds nuw %struct.PJ_XYZ, ptr %49, i32 0, i32 0
  store double %48, ptr %50, align 8, !tbaa !47
  %51 = load ptr, ptr %5, align 8, !tbaa !41
  %52 = getelementptr inbounds nuw %"struct.(anonymous namespace)::pj_opaque", ptr %51, i32 0, i32 1
  %53 = load double, ptr %52, align 8, !tbaa !50
  %54 = load double, ptr %6, align 8, !tbaa !57
  %55 = load ptr, ptr %5, align 8, !tbaa !41
  %56 = getelementptr inbounds nuw %"struct.(anonymous namespace)::pj_opaque", ptr %55, i32 0, i32 6
  %57 = load double, ptr %56, align 8, !tbaa !65
  %58 = call double @llvm.fmuladd.f64(double %54, double %57, double %53)
  %59 = load double, ptr %7, align 8, !tbaa !57
  %60 = load ptr, ptr %5, align 8, !tbaa !41
  %61 = getelementptr inbounds nuw %"struct.(anonymous namespace)::pj_opaque", ptr %60, i32 0, i32 3
  %62 = load double, ptr %61, align 8, !tbaa !61
  %63 = fmul double %59, %62
  %64 = load ptr, ptr %5, align 8, !tbaa !41
  %65 = getelementptr inbounds nuw %"struct.(anonymous namespace)::pj_opaque", ptr %64, i32 0, i32 5
  %66 = load double, ptr %65, align 8, !tbaa !64
  %67 = fneg double %63
  %68 = call double @llvm.fmuladd.f64(double %67, double %66, double %58)
  %69 = load double, ptr %8, align 8, !tbaa !57
  %70 = load ptr, ptr %5, align 8, !tbaa !41
  %71 = getelementptr inbounds nuw %"struct.(anonymous namespace)::pj_opaque", ptr %70, i32 0, i32 4
  %72 = load double, ptr %71, align 8, !tbaa !62
  %73 = fmul double %69, %72
  %74 = load ptr, ptr %5, align 8, !tbaa !41
  %75 = getelementptr inbounds nuw %"struct.(anonymous namespace)::pj_opaque", ptr %74, i32 0, i32 5
  %76 = load double, ptr %75, align 8, !tbaa !64
  %77 = call double @llvm.fmuladd.f64(double %73, double %76, double %68)
  %78 = load ptr, ptr %3, align 8, !tbaa !71
  %79 = getelementptr inbounds nuw %struct.PJ_XYZ, ptr %78, i32 0, i32 1
  store double %77, ptr %79, align 8, !tbaa !47
  %80 = load ptr, ptr %5, align 8, !tbaa !41
  %81 = getelementptr inbounds nuw %"struct.(anonymous namespace)::pj_opaque", ptr %80, i32 0, i32 2
  %82 = load double, ptr %81, align 8, !tbaa !51
  %83 = load double, ptr %7, align 8, !tbaa !57
  %84 = load ptr, ptr %5, align 8, !tbaa !41
  %85 = getelementptr inbounds nuw %"struct.(anonymous namespace)::pj_opaque", ptr %84, i32 0, i32 4
  %86 = load double, ptr %85, align 8, !tbaa !62
  %87 = call double @llvm.fmuladd.f64(double %83, double %86, double %82)
  %88 = load double, ptr %8, align 8, !tbaa !57
  %89 = load ptr, ptr %5, align 8, !tbaa !41
  %90 = getelementptr inbounds nuw %"struct.(anonymous namespace)::pj_opaque", ptr %89, i32 0, i32 3
  %91 = load double, ptr %90, align 8, !tbaa !61
  %92 = call double @llvm.fmuladd.f64(double %88, double %91, double %87)
  %93 = load ptr, ptr %3, align 8, !tbaa !71
  %94 = getelementptr inbounds nuw %struct.PJ_XYZ, ptr %93, i32 0, i32 2
  store double %92, ptr %94, align 8, !tbaa !47
  call void @llvm.lifetime.end.p0(i64 8, ptr %8) #8
  call void @llvm.lifetime.end.p0(i64 8, ptr %7) #8
  call void @llvm.lifetime.end.p0(i64 8, ptr %6) #8
  call void @llvm.lifetime.end.p0(i64 8, ptr %5) #8
  ret void
}