; Function Attrs: mustprogress nofree norecurse nosync nounwind willreturn memory(read, argmem: readwrite, inaccessiblemem: none) uwtable
define internal void @_ZL15topocentric_invR8PJ_COORDP8PJconsts(ptr noundef nonnull align 8 captures(none) dereferenceable(32) %0, ptr noundef readonly captures(none) %1) #5 {
  %3 = getelementptr inbounds nuw i8, ptr %1, i64 88
  %4 = load ptr, ptr %3, align 8, !tbaa !40
  %5 = load double, ptr %0, align 8, !tbaa !64
  %6 = getelementptr inbounds nuw i8, ptr %0, i64 8
  %7 = load double, ptr %6, align 8, !tbaa !64
  %8 = getelementptr inbounds nuw i8, ptr %0, i64 16
  %9 = load double, ptr %8, align 8, !tbaa !64
  %10 = load double, ptr %4, align 8, !tbaa !43
  %11 = getelementptr inbounds nuw i8, ptr %4, i64 40
  %12 = load double, ptr %11, align 8, !tbaa !60
  %13 = fneg double %5
  %14 = tail call double @llvm.fmuladd.f64(double %13, double %12, double %10)
  %15 = getelementptr inbounds nuw i8, ptr %4, i64 24
  %16 = load double, ptr %15, align 8, !tbaa !58
  %17 = getelementptr inbounds nuw i8, ptr %4, i64 48
  %18 = load double, ptr %17, align 8, !tbaa !61
  %19 = fneg double %16
  %20 = fmul double %7, %19
  %21 = tail call double @llvm.fmuladd.f64(double %20, double %18, double %14)
  %22 = getelementptr inbounds nuw i8, ptr %4, i64 32
  %23 = load double, ptr %22, align 8, !tbaa !59
  %24 = fmul double %9, %23
  %25 = tail call double @llvm.fmuladd.f64(double %24, double %18, double %21)
  store double %25, ptr %0, align 8, !tbaa !64
  %26 = getelementptr inbounds nuw i8, ptr %4, i64 8
  %27 = load double, ptr %26, align 8, !tbaa !45
  %28 = load double, ptr %17, align 8, !tbaa !61
  %29 = tail call double @llvm.fmuladd.f64(double %5, double %28, double %27)
  %30 = load double, ptr %15, align 8, !tbaa !58
  %31 = load double, ptr %11, align 8, !tbaa !60
  %32 = fneg double %30
  %33 = fmul double %7, %32
  %34 = tail call double @llvm.fmuladd.f64(double %33, double %31, double %29)
  %35 = load double, ptr %22, align 8, !tbaa !59
  %36 = fmul double %9, %35
  %37 = tail call double @llvm.fmuladd.f64(double %36, double %31, double %34)
  store double %37, ptr %6, align 8, !tbaa !64
  %38 = getelementptr inbounds nuw i8, ptr %4, i64 16
  %39 = load double, ptr %38, align 8, !tbaa !46
  %40 = load double, ptr %22, align 8, !tbaa !59
  %41 = tail call double @llvm.fmuladd.f64(double %7, double %40, double %39)
  %42 = load double, ptr %15, align 8, !tbaa !58
  %43 = tail call double @llvm.fmuladd.f64(double %9, double %42, double %41)
  store double %43, ptr %8, align 8, !tbaa !64
  ret void
}